target datalayout = "e-m:e-p270:32:32-p271:32:32-p272:64:64-i64:64-i128:128-f80:128-n8:16:32:64-S128"
target triple = "x86_64-pc-linux-gnu"

; Function Attrs: mustprogress uwtable
define hidden void @_ZNK4ncnn3Mat16to_pixels_resizeEPhiii(ptr noundef nonnull align 8 dereferenceable(72) %0, ptr noundef %1, i32 noundef %2, i32 noundef %3, i32 noundef %4) #0 align 2 {
  %6 = alloca ptr, align 8
  %7 = alloca ptr, align 8
  %8 = alloca i32, align 4
  %9 = alloca i32, align 4
  %10 = alloca i32, align 4
  %11 = alloca i32, align 4
  store ptr %0, ptr %6, align 8, !tbaa !25
  store ptr %1, ptr %7, align 8, !tbaa !4
  store i32 %2, ptr %8, align 4, !tbaa !9
  store i32 %3, ptr %9, align 4, !tbaa !9
  store i32 %4, ptr %10, align 4, !tbaa !9
  %12 = load ptr, ptr %6, align 8
  call void @llvm.lifetime.start.p0(i64 4, ptr %11) #9
  %13 = load i32, ptr %8, align 4, !tbaa !9
  %14 = and i32 %13, -65536
  %15 = icmp ne i32 %14, 0
  br i1 %15, label %16, label %19

16:                                               ; preds = %5
  %17 = load i32, ptr %8, align 4, !tbaa !9
  %18 = ashr i32 %17, 16
  br label %22

19:                                               ; preds = %5
  %20 = load i32, ptr %8, align 4, !tbaa !9
  %21 = and i32 %20, 65535
  br label %22

22:                                               ; preds = %19, %16
  %23 = phi i32 [ %18, %16 ], [ %21, %19 ]
  store i32 %23, ptr %11, align 4, !tbaa !9
  %24 = load i32, ptr %11, align 4, !tbaa !9
  %25 = icmp eq i32 %24, 1
  br i1 %25, label %29, label %26

26:                                               ; preds = %22
  %27 = load i32, ptr %11, align 4, !tbaa !9
  %28 = icmp eq i32 %27, 2
  br i1 %28, label %29, label %36

29:                                               ; preds = %26, %22
  %30 = load ptr, ptr %7, align 8, !tbaa !4
  %31 = load i32, ptr %8, align 4, !tbaa !9
  %32 = load i32, ptr %9, align 4, !tbaa !9
  %33 = load i32, ptr %10, align 4, !tbaa !9
  %34 = load i32, ptr %9, align 4, !tbaa !9
  %35 = mul nsw i32 %34, 3
  call void @_ZNK4ncnn3Mat16to_pixels_resizeEPhiiii(ptr noundef nonnull align 8 dereferenceable(72) %12, ptr noundef %30, i32 noundef %31, i32 noundef %32, i32 noundef %33, i32 noundef %35)
  br label %61

36:                                               ; preds = %26
  %37 = load i32, ptr %11, align 4, !tbaa !9
  %38 = icmp eq i32 %37, 3
  br i1 %38, label %39, label %46

39:                                               ; preds = %36
  %40 = load ptr, ptr %7, align 8, !tbaa !4
  %41 = load i32, ptr %8, align 4, !tbaa !9
  %42 = load i32, ptr %9, align 4, !tbaa !9
  %43 = load i32, ptr %10, align 4, !tbaa !9
  %44 = load i32, ptr %9, align 4, !tbaa !9
  %45 = mul nsw i32 %44, 1
  call void @_ZNK4ncnn3Mat16to_pixels_resizeEPhiiii(ptr noundef nonnull align 8 dereferenceable(72) %12, ptr noundef %40, i32 noundef %41, i32 noundef %42, i32 noundef %43, i32 noundef %45)
  br label %60

46:                                               ; preds = %36
  %47 = load i32, ptr %11, align 4, !tbaa !9
  %48 = icmp eq i32 %47, 4
  br i1 %48, label %52, label %49

49:                                               ; preds = %46
  %50 = load i32, ptr %11, align 4, !tbaa !9
  %51 = icmp eq i32 %50, 5
  br i1 %51, label %52, label %59

52:                                               ; preds = %49, %46
  %53 = load ptr, ptr %7, align 8, !tbaa !4
  %54 = load i32, ptr %8, align 4, !tbaa !9
  %55 = load i32, ptr %9, align 4, !tbaa !9
  %56 = load i32, ptr %10, align 4, !tbaa !9
  %57 = load i32, ptr %9, align 4, !tbaa !9
  %58 = mul nsw i32 %57, 4
  call void @_ZNK4ncnn3Mat16to_pixels_resizeEPhiiii(ptr noundef nonnull align 8 dereferenceable(72) %12, ptr noundef %53, i32 noundef %54, i32 noundef %55, i32 noundef %56, i32 noundef %58)
  br label %59

59:                                               ; preds = %52, %49
  br label %60

60:                                               ; preds = %59, %39
  br label %61

61:                                               ; preds = %60, %29
  call void @llvm.lifetime.end.p0(i64 4, ptr %11) #9
  ret void
}