; Function Attrs: mustprogress uwtable
define hidden void @_ZNK4ncnn3Mat16to_pixels_resizeEPhiii(ptr noundef nonnull readonly align 8 captures(none) dereferenceable(72) %0, ptr noundef %1, i32 noundef %2, i32 noundef %3, i32 noundef %4) local_unnamed_addr #2 align 2 {
  %.not = icmp ult i32 %2, 65536
  %6 = ashr i32 %2, 16
  %7 = select i1 %.not, i32 %2, i32 %6
  %8 = add nsw i32 %7, -1
  %or.cond = icmp ult i32 %8, 2
  br i1 %or.cond, label %9, label %11

9:                                                ; preds = %5
  %10 = mul nsw i32 %3, 3
  br label %.sink.split

11:                                               ; preds = %5
  %12 = icmp eq i32 %7, 3
  br i1 %12, label %.sink.split, label %13

13:                                               ; preds = %11
  %14 = and i32 %7, -2
  %or.cond3 = icmp eq i32 %14, 4
  br i1 %or.cond3, label %15, label %17

15:                                               ; preds = %13
  %16 = shl nsw i32 %3, 2
  br label %.sink.split

.sink.split:                                      ; preds = %11, %9, %15
  %.sink = phi i32 [ %16, %15 ], [ %10, %9 ], [ %3, %11 ]
  tail call void @_ZNK4ncnn3Mat16to_pixels_resizeEPhiiii(ptr noundef nonnull align 8 dereferenceable(72) %0, ptr noundef %1, i32 noundef %2, i32 noundef %3, i32 noundef %4, i32 noundef %.sink)
  br label %17

17:                                               ; preds = %.sink.split, %13
  ret void
}